target datalayout = "e-m:e-p270:32:32-p271:32:32-p272:64:64-i64:64-i128:128-f80:128-n8:16:32:64-S128"
target triple = "x86_64-pc-linux-gnu"

%struct.AVCodecContext = type { ptr, i32, i32, ptr, i32, i32, ptr, ptr, ptr, i64, i32, i32, ptr, i32, %struct.AVRational, %struct.AVRational, %struct.AVRational, i32, i32, i32, i32, i32, %struct.AVRational, i32, i32, i32, i32, i32, i32, i32, i32, i32, i32, i32, ptr, ptr, i32, float, float, float, float, float, float, float, float, float, i32, i32, i32, i32, i32, i32, i32, i32, i32, i32, i32, i32, ptr, ptr, ptr, i32, i32, i32, i32, i32, i32, i32, i32, i32, i32, %struct.AVChannelLayout, i32, i32, i32, i32, i32, i32, i32, i32, ptr, i32, i32, i32, float, float, i32, i32, i32, i32, i32, ptr, i64, i64, float, float, i32, i32, ptr, ptr, i32, i32, i32, i32, i32, ptr, ptr, ptr, ptr, i32, i32, [8 x i64], i32, i32, i32, i32, i32, i32, i32, ptr, ptr, i32, i32, i32, i32, i32, i32, i32, i32, i32, i32, ptr, ptr, i32, i32, ptr, ptr, ptr, ptr, i32, i32, i64, i32, i32, i64, ptr, i64, ptr, i32, ptr, i32 }
%struct.AVRational = type { i32, i32 }
%struct.AVChannelLayout = type { i32, i32, %union.anon.0, ptr }
%union.anon.0 = type { i64 }
%struct.VC1Context = type { %struct.MpegEncContext, %struct.IntraX8Context, %struct.H264ChromaContext, %struct.VC1DSPContext, i32, i32, i32, i32, i32, i32, i32, i32, i32, i32, i32, i32, i32, i32, i32, i32, i32, i32, i32, i32, i32, i32, i32, i32, i32, i32, i32, i32, i32, i32, i32, i32, i32, i32, i32, i32, i8, i8, i32, i32, i32, i32, i8, i8, [4 x [64 x i8]], i32, i32, ptr, ptr, i8, i8, i8, i8, i32, i32, i32, i32, i32, i32, i8, ptr, ptr, i32, i32, i32, i32, i32, ptr, [3 x ptr], i8, i8, i16, i8, i8, i32, i8, i8, ptr, i32, i32, ptr, ptr, ptr, i32, i32, i32, i32, [2 x [256 x i8]], [2 x [256 x i8]], [2 x [256 x i8]], [2 x [256 x i8]], [2 x [256 x i8]], [2 x [256 x i8]], ptr, ptr, i32, ptr, i32, i32, i32, i32, i32, i32, i8, i8, i32, i8, i8, i8, i8, i8, i8, i8, i32, i8, i8, ptr, i32, ptr, i32, i8, i8, i8, i8, i8, i8, i32, i32, i8, i8, ptr, ptr, ptr, ptr, i8, i8, ptr, i32, [64 x i8], ptr, ptr, ptr, [2 x ptr], ptr, [2 x ptr], i32, i32, i32, i32, i32, i32, i32, i32, [2 x i32], i32, i32, i32, i32, i32, i32, i32, i32, i32, i32, i32, i32, i32, i32, ptr, i32, i32, i32, i32, [2 x [2 x ptr]], i32, i32, i32, ptr, i32, i32, i32, i32, i32, ptr, ptr, ptr, ptr, ptr, ptr, i8, i8, i8, i32, i32, i32 }
%struct.MpegEncContext = type { ptr, i32, i32, i32, [12 x i32], i32, %struct.ScanTable, %struct.ScanTable, [64 x i8], [64 x i8], ptr, ptr, i32, i32, i32, i32, i32, i32, i32, i32, i32, i32, i32, i32, i32, i32, i32, i32, i32, i32, i32, i32, i64, i64, ptr, %struct.BufferPoolContext, i32, i32, %union.anon.1, i32, %struct.MPVWorkPicture, %struct.MPVWorkPicture, %struct.MPVWorkPicture, i32, [3 x i32], ptr, [3 x ptr], ptr, ptr, ptr, ptr, ptr, ptr, [3 x ptr], i32, ptr, ptr, ptr, ptr, %struct.ScratchpadContext, i32, i32, i32, i32, i32, i32, %struct.BlockDSPContext, %struct.H264ChromaContext, %struct.HpelDSPContext, %struct.IDCTDSPContext, %struct.QpelDSPContext, %struct.VideoDSPContext, %struct.H263DSPContext, ptr, [2 x [2 x ptr]], i32, i32, [2 x [4 x [2 x i32]]], [2 x [2 x i32]], [2 x [2 x [2 x i32]]], [2 x [64 x i16]], i32, i32, i32, i32, i32, [6 x i32], [6 x i32], [3 x ptr], ptr, [64 x i16], [64 x i16], [64 x i16], [64 x i16], i32, i32, %struct.GetBitContext, i32, i32, i32, i32, i32, i32, i32, i32, i32, i32, i32, i32, i32, i32, i32, i64, i64, i16, i16, i16, i16, i32, i32, i32, i32, i32, i32, i32, i32, i32, [3 x i32], i32, i32, i32, i32, i32, i32, %struct.GetBitContext, i32, [2 x [2 x i32]], i32, i32, i32, i32, i32, i32, i32, i32, i32, i32, i32, i32, i32, i32, [2 x i32], i32, i32, ptr, ptr, ptr, ptr, ptr, i32, i32, %struct.ERContext }
%struct.ScanTable = type { ptr, [64 x i8], [64 x i8] }
%struct.BufferPoolContext = type { ptr, ptr, ptr, ptr, ptr, i32, i32, i32 }
%union.anon.1 = type { [32 x ptr] }
%struct.MPVWorkPicture = type { [3 x ptr], [3 x i64], ptr, ptr, [2 x ptr], ptr, ptr, [2 x ptr], i32 }
%struct.ScratchpadContext = type { ptr, ptr, %union.anon.2, i32 }
%union.anon.2 = type { ptr }
%struct.BlockDSPContext = type { ptr, ptr, [2 x ptr] }
%struct.HpelDSPContext = type { [4 x [4 x ptr]], [4 x [4 x ptr]], [4 x [4 x ptr]], [4 x ptr] }
%struct.IDCTDSPContext = type { ptr, ptr, ptr, ptr, ptr, ptr, [64 x i8], i32, i32 }
%struct.QpelDSPContext = type { [2 x [16 x ptr]], [2 x [16 x ptr]], [2 x [16 x ptr]] }
%struct.VideoDSPContext = type { ptr, ptr }
%struct.H263DSPContext = type { ptr, ptr }
%struct.GetBitContext = type { ptr, ptr, i32, i32, i32 }
%struct.ERContext = type { ptr, ptr, i32, ptr, i32, i32, i32, i64, i64, i32, i32, ptr, ptr, [3 x ptr], ptr, ptr, [2 x [4 x [2 x i32]]], %struct.ERPicture, %struct.ERPicture, %struct.ERPicture, [2 x ptr], [2 x ptr], i16, i16, i32, i32, ptr, ptr }
%struct.ERPicture = type { ptr, ptr, ptr, [2 x ptr], [2 x ptr], ptr, i32 }
%struct.IntraX8Context = type { [4 x ptr], ptr, [3 x ptr], i32, ptr, [3 x [64 x i8]], %struct.WMV2DSPContext, [64 x i8], ptr, ptr, %struct.IntraX8DSPContext, %struct.BlockDSPContext, i32, i32, i32, i32, ptr, ptr, i32, i32, i32, [3 x ptr], [42 x i8], i32, i32, i32, i32, i32, i32, i32, i32, i32, i32, i32 }
%struct.WMV2DSPContext = type { ptr, ptr, [8 x ptr], i32 }
%struct.IntraX8DSPContext = type { ptr, ptr, [12 x ptr], ptr }
%struct.H264ChromaContext = type { [4 x ptr], [4 x ptr] }
%struct.VC1DSPContext = type { ptr, ptr, ptr, ptr, ptr, ptr, ptr, ptr, ptr, ptr, ptr, ptr, ptr, ptr, ptr, ptr, ptr, ptr, [2 x [16 x ptr]], [2 x [16 x ptr]], [3 x ptr], [3 x ptr], ptr, ptr, ptr, ptr, ptr, ptr, ptr }

@ff_wmv2_scantableA = external constant [64 x i8], align 16
@ff_wmv2_scantableB = external constant [64 x i8], align 16

; Function Attrs: cold nounwind optsize uwtable
define internal i32 @wmv9_init(ptr noundef %0) #0 {
  %2 = alloca i32, align 4
  %3 = alloca ptr, align 8
  %4 = alloca ptr, align 8
  %5 = alloca i32, align 4
  %6 = alloca i32, align 4
  store ptr %0, ptr %3, align 8, !tbaa !4
  call void @llvm.lifetime.start.p0(i64 8, ptr %4) #10
  %7 = load ptr, ptr %3, align 8, !tbaa !4
  %8 = getelementptr inbounds nuw %struct.AVCodecContext, ptr %7, i32 0, i32 6
  %9 = load ptr, ptr %8, align 8, !tbaa !9
  store ptr %9, ptr %4, align 8, !tbaa !120
  call void @llvm.lifetime.start.p0(i64 4, ptr %5) #10
  %10 = load ptr, ptr %3, align 8, !tbaa !4
  %11 = load ptr, ptr %4, align 8, !tbaa !120
  %12 = getelementptr inbounds nuw %struct.VC1Context, ptr %11, i32 0, i32 0
  %13 = getelementptr inbounds nuw %struct.MpegEncContext, ptr %12, i32 0, i32 10
  store ptr %10, ptr %13, align 8, !tbaa !122
  %14 = load ptr, ptr %4, align 8, !tbaa !120
  call void @ff_vc1_init_common(ptr noundef %14)
  %15 = load ptr, ptr %4, align 8, !tbaa !120
  %16 = getelementptr inbounds nuw %struct.VC1Context, ptr %15, i32 0, i32 27
  store i32 1, ptr %16, align 4, !tbaa !123
  %17 = load ptr, ptr %4, align 8, !tbaa !120
  %18 = getelementptr inbounds nuw %struct.VC1Context, ptr %17, i32 0, i32 51
  store ptr @ff_wmv2_scantableA, ptr %18, align 8, !tbaa !124
  %19 = load ptr, ptr %4, align 8, !tbaa !120
  %20 = getelementptr inbounds nuw %struct.VC1Context, ptr %19, i32 0, i32 52
  store ptr @ff_wmv2_scantableB, ptr %20, align 8, !tbaa !125
  %21 = load ptr, ptr %4, align 8, !tbaa !120
  %22 = getelementptr inbounds nuw %struct.VC1Context, ptr %21, i32 0, i32 5
  store i32 0, ptr %22, align 4, !tbaa !126
  %23 = load ptr, ptr %4, align 8, !tbaa !120
  %24 = getelementptr inbounds nuw %struct.VC1Context, ptr %23, i32 0, i32 4
  store i32 0, ptr %24, align 8, !tbaa !127
  %25 = load ptr, ptr %4, align 8, !tbaa !120
  %26 = getelementptr inbounds nuw %struct.VC1Context, ptr %25, i32 0, i32 28
  store i32 7, ptr %26, align 8, !tbaa !128
  %27 = load ptr, ptr %4, align 8, !tbaa !120
  %28 = getelementptr inbounds nuw %struct.VC1Context, ptr %27, i32 0, i32 29
  store i32 31, ptr %28, align 4, !tbaa !129
  %29 = load ptr, ptr %4, align 8, !tbaa !120
  %30 = getelementptr inbounds nuw %struct.VC1Context, ptr %29, i32 0, i32 6
  store i32 0, ptr %30, align 8, !tbaa !130
  %31 = load ptr, ptr %4, align 8, !tbaa !120
  %32 = getelementptr inbounds nuw %struct.VC1Context, ptr %31, i32 0, i32 7
  store i32 0, ptr %32, align 4, !tbaa !131
  %33 = load ptr, ptr %4, align 8, !tbaa !120
  %34 = getelementptr inbounds nuw %struct.VC1Context, ptr %33, i32 0, i32 8
  store i32 1, ptr %34, align 8, !tbaa !132
  %35 = load ptr, ptr %4, align 8, !tbaa !120
  %36 = getelementptr inbounds nuw %struct.VC1Context, ptr %35, i32 0, i32 32
  store i32 0, ptr %36, align 8, !tbaa !133
  %37 = load ptr, ptr %4, align 8, !tbaa !120
  %38 = getelementptr inbounds nuw %struct.VC1Context, ptr %37, i32 0, i32 33
  store i32 0, ptr %38, align 4, !tbaa !134
  %39 = load ptr, ptr %4, align 8, !tbaa !120
  %40 = getelementptr inbounds nuw %struct.VC1Context, ptr %39, i32 0, i32 34
  store i32 1, ptr %40, align 8, !tbaa !135
  %41 = load ptr, ptr %4, align 8, !tbaa !120
  %42 = getelementptr inbounds nuw %struct.VC1Context, ptr %41, i32 0, i32 35
  store i32 1, ptr %42, align 4, !tbaa !136
  %43 = load ptr, ptr %4, align 8, !tbaa !120
  %44 = getelementptr inbounds nuw %struct.VC1Context, ptr %43, i32 0, i32 9
  store i32 0, ptr %44, align 4, !tbaa !137
  %45 = load ptr, ptr %4, align 8, !tbaa !120
  %46 = getelementptr inbounds nuw %struct.VC1Context, ptr %45, i32 0, i32 36
  store i32 0, ptr %46, align 8, !tbaa !138
  %47 = load ptr, ptr %4, align 8, !tbaa !120
  %48 = getelementptr inbounds nuw %struct.VC1Context, ptr %47, i32 0, i32 198
  store i32 0, ptr %48, align 4, !tbaa !139
  %49 = load ptr, ptr %4, align 8, !tbaa !120
  %50 = getelementptr inbounds nuw %struct.VC1Context, ptr %49, i32 0, i32 10
  store i32 0, ptr %50, align 8, !tbaa !140
  %51 = load ptr, ptr %3, align 8, !tbaa !4
  %52 = getelementptr inbounds nuw %struct.AVCodecContext, ptr %51, i32 0, i32 36
  store i32 0, ptr %52, align 8, !tbaa !141
  %53 = load ptr, ptr %4, align 8, !tbaa !120
  %54 = getelementptr inbounds nuw %struct.VC1Context, ptr %53, i32 0, i32 37
  store i32 0, ptr %54, align 4, !tbaa !142
  %55 = load ptr, ptr %4, align 8, !tbaa !120
  %56 = getelementptr inbounds nuw %struct.VC1Context, ptr %55, i32 0, i32 38
  store i32 0, ptr %56, align 8, !tbaa !143
  %57 = load ptr, ptr %4, align 8, !tbaa !120
  %58 = getelementptr inbounds nuw %struct.VC1Context, ptr %57, i32 0, i32 39
  store i32 0, ptr %58, align 4, !tbaa !144
  %59 = load ptr, ptr %4, align 8, !tbaa !120
  %60 = getelementptr inbounds nuw %struct.VC1Context, ptr %59, i32 0, i32 11
  store i32 1, ptr %60, align 4, !tbaa !145
  %61 = load ptr, ptr %4, align 8, !tbaa !120
  call void @ff_vc1_init_transposed_scantables(ptr noundef %61)
  %62 = load ptr, ptr %3, align 8, !tbaa !4
  %63 = call i32 @ff_vc1_decode_init(ptr noundef %62)
  store i32 %63, ptr %5, align 4, !tbaa !35
  %64 = load i32, ptr %5, align 4, !tbaa !35
  %65 = icmp slt i32 %64, 0
  br i1 %65, label %66, label %68

66:                                               ; preds = %1
  %67 = load i32, ptr %5, align 4, !tbaa !35
  store i32 %67, ptr %2, align 4
  store i32 1, ptr %6, align 4
  br label %69

68:                                               ; preds = %1
  store i32 0, ptr %2, align 4
  store i32 1, ptr %6, align 4
  br label %69

69:                                               ; preds = %68, %66
  call void @llvm.lifetime.end.p0(i64 4, ptr %5) #10
  call void @llvm.lifetime.end.p0(i64 8, ptr %4) #10
  %70 = load i32, ptr %2, align 4
  ret i32 %70
}