; Function Attrs: cold nounwind optsize uwtable
define internal fastcc range(i32 -2147483648, 1) i32 @wmv9_init(ptr noundef %0) unnamed_addr #0 {
  %2 = getelementptr inbounds nuw i8, ptr %0, i64 32
  %3 = load ptr, ptr %2, align 8, !tbaa !4
  %4 = getelementptr inbounds nuw i8, ptr %3, i64 472
  store ptr %0, ptr %4, align 8, !tbaa !127
  tail call void @ff_vc1_init_common(ptr noundef %3) #11
  %5 = getelementptr inbounds nuw i8, ptr %3, i64 6476
  store i32 1, ptr %5, align 4, !tbaa !128
  %6 = getelementptr inbounds nuw i8, ptr %3, i64 6816
  store ptr @ff_wmv2_scantableA, ptr %6, align 8, !tbaa !129
  %7 = getelementptr inbounds nuw i8, ptr %3, i64 6824
  store ptr @ff_wmv2_scantableB, ptr %7, align 8, !tbaa !130
  %8 = getelementptr inbounds nuw i8, ptr %3, i64 6388
  store i32 0, ptr %8, align 4, !tbaa !131
  %9 = getelementptr inbounds nuw i8, ptr %3, i64 6384
  store i32 0, ptr %9, align 8, !tbaa !132
  %10 = getelementptr inbounds nuw i8, ptr %3, i64 6480
  store i32 7, ptr %10, align 8, !tbaa !133
  %11 = getelementptr inbounds nuw i8, ptr %3, i64 6484
  store i32 31, ptr %11, align 4, !tbaa !134
  %12 = getelementptr inbounds nuw i8, ptr %3, i64 6392
  store i32 0, ptr %12, align 8, !tbaa !135
  %13 = getelementptr inbounds nuw i8, ptr %3, i64 6396
  store i32 0, ptr %13, align 4, !tbaa !136
  %14 = getelementptr inbounds nuw i8, ptr %3, i64 6400
  store i32 1, ptr %14, align 8, !tbaa !137
  %15 = getelementptr inbounds nuw i8, ptr %3, i64 6496
  store i32 0, ptr %15, align 8, !tbaa !138
  %16 = getelementptr inbounds nuw i8, ptr %3, i64 6500
  store i32 0, ptr %16, align 4, !tbaa !139
  %17 = getelementptr inbounds nuw i8, ptr %3, i64 6504
  store i32 1, ptr %17, align 8, !tbaa !140
  %18 = getelementptr inbounds nuw i8, ptr %3, i64 6508
  store i32 1, ptr %18, align 4, !tbaa !141
  %19 = getelementptr inbounds nuw i8, ptr %3, i64 6404
  store i32 0, ptr %19, align 4, !tbaa !142
  %20 = getelementptr inbounds nuw i8, ptr %3, i64 6512
  store i32 0, ptr %20, align 8, !tbaa !143
  %21 = getelementptr inbounds nuw i8, ptr %3, i64 10652
  store i32 0, ptr %21, align 4, !tbaa !144
  %22 = getelementptr inbounds nuw i8, ptr %3, i64 6408
  store i32 0, ptr %22, align 8, !tbaa !145
  %23 = getelementptr inbounds nuw i8, ptr %0, i64 200
  store i32 0, ptr %23, align 8, !tbaa !146
  %24 = getelementptr inbounds nuw i8, ptr %3, i64 6516
  store i32 0, ptr %24, align 4, !tbaa !147
  %25 = getelementptr inbounds nuw i8, ptr %3, i64 6520
  store i32 0, ptr %25, align 8, !tbaa !148
  %26 = getelementptr inbounds nuw i8, ptr %3, i64 6524
  store i32 0, ptr %26, align 4, !tbaa !149
  %27 = getelementptr inbounds nuw i8, ptr %3, i64 6412
  store i32 1, ptr %27, align 4, !tbaa !150
  tail call void @ff_vc1_init_transposed_scantables(ptr noundef %3) #11
  %28 = tail call i32 @ff_vc1_decode_init(ptr noundef %0) #11
  %. = tail call i32 @llvm.smin.i32(i32 %28, i32 0)
  ret i32 %.
}